; Function Attrs: null_pointer_is_valid sspstrong uwtable
define internal range(i32 -2147483648, 2) i32 @dissect_s_validator_type(ptr noundef %0, ptr noundef %1, ptr noundef %2, ptr noundef %3, i32 noundef %4, i32 noundef %5) #2 {
  %7 = icmp slt i32 %5, 1
  br i1 %7, label %8, label %10

8:                                                ; preds = %6
  %9 = tail call ptr @expert_add_info(ptr noundef %0, ptr noundef %2, ptr noundef nonnull @ei_mal_svalidator_type)
  br label %14

10:                                               ; preds = %6
  %11 = load i32, ptr @hf_cip_svalidator_type, align 4
  %12 = load i32, ptr @ett_svalidator_type, align 4
  %13 = tail call ptr @proto_tree_add_bitmask(ptr noundef %1, ptr noundef %3, i32 noundef %4, i32 noundef %11, i32 noundef %12, ptr noundef nonnull @dissect_s_validator_type.bits, i32 noundef -2147483648)
  br label %14

14:                                               ; preds = %10, %8
  %.0 = phi i32 [ %5, %8 ], [ 1, %10 ]
  ret i32 %.0
}